; Function Attrs: mustprogress uwtable
define hidden noundef i32 @_ZNK4cvc58internal4prop11TheoryProxy14getLiteralTypeERKNS0_12NodeTemplateILb1EEE(ptr noundef nonnull readonly align 8 captures(none) dereferenceable(521) %0, ptr noundef nonnull align 8 dereferenceable(8) %1) local_unnamed_addr #4 align 2 {
  %3 = getelementptr inbounds nuw i8, ptr %0, i64 448
  %4 = load ptr, ptr %3, align 8, !tbaa !336
  %.not = icmp eq ptr %4, null
  br i1 %.not, label %7, label %5

5:                                                ; preds = %2
  %6 = tail call noundef i32 @_ZN4cvc58internal4prop16ZeroLevelLearner25computeLearnedLiteralTypeERKNS0_12NodeTemplateILb1EEE(ptr noundef nonnull align 8 dereferenceable(1320) %4, ptr noundef nonnull align 8 dereferenceable(8) %1)
  br label %7

7:                                                ; preds = %2, %5
  %.0 = phi i32 [ %6, %5 ], [ 6, %2 ]
  ret i32 %.0
}